(lp0
((lp1
F300.047646522522
aF-256.89115646258506
a(lp2
F0.0
aF0.0
atp3
a((lp4
F300.0477366447449
aF-266.6394557823129
a(lp5
F0.0
aF0.0
atp6
a((lp7
F300.047634601593
aF-232.33560090702946
a(lp8
F0.0
aF0.0
atp9
a((lp10
F300.0477182865143
aF-230.25396825396825
a(lp11
F0.0
aF0.0
atp12
a((lp13
F300.06204104423523
aF-247.1156462585034
a(lp14
F0.0
aF0.0
atp15
a((lp16
F300.0620241165161
aF-230.09750566893425
a(lp17
F0.0
aF0.0
atp18
a((lp19
F300.04770731925964
aF-241.5283446712018
a(lp20
F0.0
aF0.0
atp21
a((lp22
F300.0477366447449
aF-266.6394557823129
a(lp23
F0.0
aF0.0
atp24
a((lp25
F300.05306243896484
aF-228.6825396825397
a(lp26
F0.0
aF0.0
atp27
a((lp28
F300.0624005794525
aF-247.20861678004536
a(lp29
F0.0
aF0.0
atp30
a.