(lp0
((lp1
F300.0478665828705
aF-273.8888888888889
a(lp2
F0.0
aF0.0
atp3
a((lp4
F300.0623388290405
aF-273.0952380952381
a(lp5
F0.0
aF0.0
atp6
a((lp7
F300.0619912147522
aF-272.02267573696145
a(lp8
F0.0
aF0.0
atp9
a((lp10
F300.047771692276
aF-271.2199546485261
a(lp11
F0.0
aF0.0
atp12
a((lp13
F300.04766511917114
aF-270.73696145124717
a(lp14
F0.0
aF0.0
atp15
a((lp16
F300.0478389263153
aF-271.2199546485261
a(lp17
F0.0
aF0.0
atp18
a((lp19
F300.04763650894165
aF-271.76190476190476
a(lp20
F0.0
aF0.0
atp21
a((lp22
F300.0478346347809
aF-270.80272108843536
a(lp23
F0.0
aF0.0
atp24
a((lp25
F300.0622103214264
aF-270.96598639455783
a(lp26
F0.0
aF0.0
atp27
a((lp28
F300.0478165149689
aF-273.281179138322
a(lp29
F0.0
aF0.0
atp30
a.