(lp0
((lp1
F300.06234765052795
aF-263.83673469387753
a(lp2
F0.0
aF0.0
atp3
a((lp4
F300.06234765052795
aF-263.83673469387753
a(lp5
F0.0
aF0.0
atp6
a((lp7
F300.0476460456848
aF-262.77097505668934
a(lp8
F0.0
aF0.0
atp9
a((lp10
F300.0476198196411
aF-262.17687074829934
a(lp11
F0.0
aF0.0
atp12
a((lp13
F300.04767179489136
aF-263.26303854875283
a(lp14
F0.0
aF0.0
atp15
a((lp16
F300.0619556903839
aF-262.16326530612247
a(lp17
F0.0
aF0.0
atp18
a((lp19
F300.0477383136749
aF-262.12018140589566
a(lp20
F0.0
aF0.0
atp21
a((lp22
F300.04763078689575
aF-263.82766439909295
a(lp23
F0.0
aF0.0
atp24
a((lp25
F300.04771089553833
aF-262.7891156462585
a(lp26
F0.0
aF0.0
atp27
a((lp28
F300.04839038848877
aF-262.15646258503403
a(lp29
F0.0
aF0.0
atp30
a.