(lp0
((lp1
F300.06233406066895
aF-265.43310657596373
a(lp2
F0.0
aF0.0
atp3
a((lp4
F300.0623149871826
aF-273.60770975056687
a(lp5
F0.0
aF0.0
atp6
a((lp7
F300.0476613044739
aF-263.80272108843536
a(lp8
F0.0
aF0.0
atp9
a((lp10
F300.0620503425598
aF-253.03854875283446
a(lp11
F0.0
aF0.0
atp12
a((lp13
F300.0620713233948
aF-245.93197278911566
a(lp14
F0.0
aF0.0
atp15
a((lp16
F300.0620393753052
aF-253.0408163265306
a(lp17
F0.0
aF0.0
atp18
a((lp19
F300.0476703643799
aF-265.40589569161
a(lp20
F0.0
aF0.0
atp21
a((lp22
F300.06201457977295
aF-252.3469387755102
a(lp23
F0.0
aF0.0
atp24
a((lp25
F300.0623149871826
aF-273.60770975056687
a(lp26
F0.0
aF0.0
atp27
a((lp28
F300.047842502594
aF-270.08843537414964
a(lp29
F0.0
aF0.0
atp30
a.